; Function Attrs: mustprogress uwtable
define internal void @_ZNK7rocksdb12_GLOBAL__N_122BytewiseComparatorImpl18FindShortSuccessorEPNSt7__cxx1112basic_stringIcSt11char_traitsIcESaIcEEE(ptr nonnull readnone align 8 captures(none) %0, ptr noundef %1) unnamed_addr #1 align 2 {
  %3 = getelementptr inbounds nuw i8, ptr %1, i64 8
  %4 = load i64, ptr %3, align 8, !tbaa !39
  %.not20 = icmp eq i64 %4, 0
  br i1 %.not20, label %.loopexit, label %.lr.ph

.lr.ph:                                           ; preds = %2
  %5 = load ptr, ptr %1, align 8, !tbaa !42
  br label %6

6:                                                ; preds = %.lr.ph, %.critedge
  %.019 = phi i64 [ 0, %.lr.ph ], [ %13, %.critedge ]
  %7 = getelementptr inbounds nuw i8, ptr %5, i64 %.019
  %8 = load i8, ptr %7, align 1, !tbaa !45
  %.not = icmp eq i8 %8, -1
  br i1 %.not, label %.critedge, label %9

9:                                                ; preds = %6
  %10 = getelementptr inbounds nuw i8, ptr %5, i64 %.019
  %11 = add nuw i8 %8, 1
  store i8 %11, ptr %10, align 1, !tbaa !45
  %12 = add nuw i64 %.019, 1
  tail call void @_ZNSt7__cxx1112basic_stringIcSt11char_traitsIcESaIcEE6resizeEmc(ptr noundef nonnull align 8 dereferenceable(32) %1, i64 noundef %12, i8 noundef signext 0)
  br label %.loopexit

.critedge:                                        ; preds = %6
  %13 = add nuw i64 %.019, 1
  %exitcond.not = icmp eq i64 %13, %4
  br i1 %exitcond.not, label %.loopexit, label %6, !llvm.loop !119

.loopexit:                                        ; preds = %.critedge, %2, %9
  ret void
}